target datalayout = "e-m:e-p270:32:32-p271:32:32-p272:64:64-i64:64-i128:128-f80:128-n8:16:32:64-S128"
target triple = "x86_64-pc-linux-gnu"

%struct.lua_State = type { %struct.GCRef, i8, i8, i8, i8, %struct.MRef, %struct.GCRef, ptr, ptr, %struct.MRef, %struct.MRef, %struct.GCRef, %struct.GCRef, ptr, i32 }
%struct.MRef = type { i64 }
%struct.GCRef = type { i64 }
%union.TValue = type { i64 }
%struct.GCstr = type { %struct.GCRef, i8, i8, i8, i8, i32, i32, i32 }
%struct.GChead = type { %struct.GCRef, i8, i8, i8, i8, %struct.GCRef, %struct.GCRef, %struct.GCRef }
%struct.GCfuncC = type { %struct.GCRef, i8, i8, i8, i8, %struct.GCRef, %struct.GCRef, %struct.MRef, ptr, [1 x %union.TValue] }
%struct.global_State = type { ptr, ptr, %struct.GCState, %struct.GCstr, i8, i8, i8, i8, %struct.StrInternState, i32, %struct.GCRef, %struct.SBuf, %union.TValue, %union.TValue, %struct.Node, %union.TValue, %struct.GCupval, i32, i32, ptr, ptr, ptr, i32, i32, %struct.GCRef, %struct.MRef, %struct.MRef, %struct.PRNGState, [39 x %struct.GCRef] }
%struct.GCState = type { i64, i64, i8, i8, i8, i8, i32, %struct.GCRef, %struct.MRef, %struct.GCRef, %struct.GCRef, %struct.GCRef, %struct.GCRef, i64, i64, i32, i32, %struct.MRef }
%struct.StrInternState = type { ptr, i32, i32, i32, i8, i8, i8, i8, i64 }
%struct.SBuf = type { ptr, ptr, ptr, %struct.MRef }
%struct.Node = type { %union.TValue, %union.TValue, %struct.MRef }
%struct.GCupval = type { %struct.GCRef, i8, i8, i8, i8, %union.anon, %struct.MRef, i32 }
%union.anon = type { %struct.anon.1 }
%struct.anon.1 = type { %struct.GCRef, %struct.GCRef }
%struct.PRNGState = type { [4 x i64] }
%struct.GCudata = type { %struct.GCRef, i8, i8, i8, i8, %struct.GCRef, i32, %struct.GCRef, i32 }
%struct.SBufExt = type { ptr, ptr, ptr, %struct.MRef, %union.anon.2, ptr, %struct.GCRef, %struct.GCRef, i32 }
%union.anon.2 = type { %struct.GCRef }

@.str.7 = private unnamed_addr constant [8 x i8] c"=(load)\00", align 1

; Function Attrs: nounwind uwtable
define internal i32 @load_aux(ptr noundef %0, i32 noundef %1, i32 noundef %2) #3 {
  %4 = alloca i32, align 4
  %5 = alloca ptr, align 8
  %6 = alloca i32, align 4
  %7 = alloca i32, align 4
  %8 = alloca ptr, align 8
  %9 = alloca ptr, align 8
  store ptr %0, ptr %5, align 8, !tbaa !4
  store i32 %1, ptr %6, align 4, !tbaa !29
  store i32 %2, ptr %7, align 4, !tbaa !29
  %10 = load i32, ptr %6, align 4, !tbaa !29
  %11 = icmp eq i32 %10, 0
  br i1 %11, label %12, label %81

12:                                               ; preds = %3
  %13 = load ptr, ptr %5, align 8, !tbaa !4
  %14 = getelementptr inbounds nuw %struct.lua_State, ptr %13, i32 0, i32 7
  %15 = load ptr, ptr %14, align 8, !tbaa !32
  %16 = load i32, ptr %7, align 4, !tbaa !29
  %17 = sext i32 %16 to i64
  %18 = getelementptr inbounds %union.TValue, ptr %15, i64 %17
  %19 = getelementptr inbounds %union.TValue, ptr %18, i64 -1
  %20 = load i64, ptr %19, align 8, !tbaa !16
  %21 = ashr i64 %20, 47
  %22 = trunc i64 %21 to i32
  %23 = icmp eq i32 %22, -12
  br i1 %23, label %24, label %80

24:                                               ; preds = %12
  %25 = load ptr, ptr %5, align 8, !tbaa !4
  %26 = getelementptr inbounds nuw %struct.lua_State, ptr %25, i32 0, i32 8
  %27 = load ptr, ptr %26, align 8, !tbaa !9
  %28 = getelementptr inbounds %union.TValue, ptr %27, i64 -1
  %29 = load i64, ptr %28, align 8, !tbaa !16
  %30 = ashr i64 %29, 47
  %31 = trunc i64 %30 to i32
  %32 = icmp eq i32 %31, -9
  br i1 %32, label %33, label %80

33:                                               ; preds = %24
  call void @llvm.lifetime.start.p0(i64 8, ptr %8) #11
  %34 = load ptr, ptr %5, align 8, !tbaa !4
  %35 = getelementptr inbounds nuw %struct.lua_State, ptr %34, i32 0, i32 8
  %36 = load ptr, ptr %35, align 8, !tbaa !9
  %37 = getelementptr inbounds %union.TValue, ptr %36, i64 -1
  %38 = getelementptr inbounds nuw %struct.GCRef, ptr %37, i32 0, i32 0
  %39 = load i64, ptr %38, align 8, !tbaa !16
  %40 = and i64 %39, 140737488355327
  %41 = inttoptr i64 %40 to ptr
  store ptr %41, ptr %8, align 8, !tbaa !34
  call void @llvm.lifetime.start.p0(i64 8, ptr %9) #11
  %42 = load ptr, ptr %5, align 8, !tbaa !4
  %43 = getelementptr inbounds nuw %struct.lua_State, ptr %42, i32 0, i32 7
  %44 = load ptr, ptr %43, align 8, !tbaa !32
  %45 = load i32, ptr %7, align 4, !tbaa !29
  %46 = sext i32 %45 to i64
  %47 = getelementptr inbounds %union.TValue, ptr %44, i64 %46
  %48 = getelementptr inbounds %union.TValue, ptr %47, i64 -1
  %49 = getelementptr inbounds nuw %struct.GCRef, ptr %48, i32 0, i32 0
  %50 = load i64, ptr %49, align 8, !tbaa !16
  %51 = and i64 %50, 140737488355327
  %52 = inttoptr i64 %51 to ptr
  store ptr %52, ptr %9, align 8, !tbaa !20
  %53 = load ptr, ptr %9, align 8, !tbaa !20
  %54 = ptrtoint ptr %53 to i64
  %55 = load ptr, ptr %8, align 8, !tbaa !34
  %56 = getelementptr inbounds nuw %struct.GCfuncC, ptr %55, i32 0, i32 5
  %57 = getelementptr inbounds nuw %struct.GCRef, ptr %56, i32 0, i32 0
  store i64 %54, ptr %57, align 8, !tbaa !16
  %58 = load ptr, ptr %9, align 8, !tbaa !20
  %59 = getelementptr inbounds nuw %struct.GChead, ptr %58, i32 0, i32 1
  %60 = load i8, ptr %59, align 8, !tbaa !16
  %61 = zext i8 %60 to i32
  %62 = and i32 %61, 3
  %63 = icmp ne i32 %62, 0
  br i1 %63, label %64, label %79

64:                                               ; preds = %33
  %65 = load ptr, ptr %8, align 8, !tbaa !34
  %66 = getelementptr inbounds nuw %struct.GChead, ptr %65, i32 0, i32 1
  %67 = load i8, ptr %66, align 8, !tbaa !16
  %68 = zext i8 %67 to i32
  %69 = and i32 %68, 4
  %70 = icmp ne i32 %69, 0
  br i1 %70, label %71, label %79

71:                                               ; preds = %64
  %72 = load ptr, ptr %5, align 8, !tbaa !4
  %73 = getelementptr inbounds nuw %struct.lua_State, ptr %72, i32 0, i32 5
  %74 = getelementptr inbounds nuw %struct.MRef, ptr %73, i32 0, i32 0
  %75 = load i64, ptr %74, align 8, !tbaa !33
  %76 = inttoptr i64 %75 to ptr
  %77 = load ptr, ptr %8, align 8, !tbaa !34
  %78 = load ptr, ptr %9, align 8, !tbaa !20
  call void @lj_gc_barrierf(ptr noundef %76, ptr noundef %77, ptr noundef %78)
  br label %79

79:                                               ; preds = %71, %64, %33
  call void @llvm.lifetime.end.p0(i64 8, ptr %9) #11
  call void @llvm.lifetime.end.p0(i64 8, ptr %8) #11
  br label %80

80:                                               ; preds = %79, %24, %12
  store i32 1, ptr %4, align 4
  br label %86

81:                                               ; preds = %3
  %82 = load ptr, ptr %5, align 8, !tbaa !4
  %83 = getelementptr inbounds nuw %struct.lua_State, ptr %82, i32 0, i32 8
  %84 = load ptr, ptr %83, align 8, !tbaa !9
  %85 = getelementptr inbounds %union.TValue, ptr %84, i64 -2
  store i64 -1, ptr %85, align 8, !tbaa !16
  store i32 2, ptr %4, align 4
  br label %86

86:                                               ; preds = %81, %80
  %87 = load i32, ptr %4, align 4
  ret i32 %87
}

; Function Attrs: nounwind uwtable
define internal i32 @lj_cf_load(ptr noundef %0) #3 {
  %2 = alloca ptr, align 8
  %3 = alloca ptr, align 8
  %4 = alloca ptr, align 8
  %5 = alloca i32, align 4
  %6 = alloca ptr, align 8
  %7 = alloca i32, align 4
  %8 = alloca ptr, align 8
  %9 = alloca ptr, align 8
  store ptr %0, ptr %2, align 8, !tbaa !4
  call void @llvm.lifetime.start.p0(i64 8, ptr %3) #11
  %10 = load ptr, ptr %2, align 8, !tbaa !4
  %11 = call ptr @lj_lib_optstr(ptr noundef %10, i32 noundef 2)
  store ptr %11, ptr %3, align 8, !tbaa !30
  call void @llvm.lifetime.start.p0(i64 8, ptr %4) #11
  %12 = load ptr, ptr %2, align 8, !tbaa !4
  %13 = call ptr @lj_lib_optstr(ptr noundef %12, i32 noundef 3)
  store ptr %13, ptr %4, align 8, !tbaa !30
  call void @llvm.lifetime.start.p0(i64 4, ptr %5) #11
  %14 = load ptr, ptr %2, align 8, !tbaa !4
  %15 = getelementptr inbounds nuw %struct.lua_State, ptr %14, i32 0, i32 7
  %16 = load ptr, ptr %15, align 8, !tbaa !32
  %17 = load ptr, ptr %2, align 8, !tbaa !4
  %18 = getelementptr inbounds nuw %struct.lua_State, ptr %17, i32 0, i32 8
  %19 = load ptr, ptr %18, align 8, !tbaa !9
  %20 = icmp ult ptr %16, %19
  br i1 %20, label %21, label %141

21:                                               ; preds = %1
  %22 = load ptr, ptr %2, align 8, !tbaa !4
  %23 = getelementptr inbounds nuw %struct.lua_State, ptr %22, i32 0, i32 7
  %24 = load ptr, ptr %23, align 8, !tbaa !32
  %25 = load i64, ptr %24, align 8, !tbaa !16
  %26 = ashr i64 %25, 47
  %27 = trunc i64 %26 to i32
  %28 = icmp eq i32 %27, -5
  br i1 %28, label %57, label %29

29:                                               ; preds = %21
  %30 = load ptr, ptr %2, align 8, !tbaa !4
  %31 = getelementptr inbounds nuw %struct.lua_State, ptr %30, i32 0, i32 7
  %32 = load ptr, ptr %31, align 8, !tbaa !32
  %33 = load i64, ptr %32, align 8, !tbaa !16
  %34 = ashr i64 %33, 47
  %35 = trunc i64 %34 to i32
  %36 = icmp ule i32 %35, -14
  br i1 %36, label %57, label %37

37:                                               ; preds = %29
  %38 = load ptr, ptr %2, align 8, !tbaa !4
  %39 = getelementptr inbounds nuw %struct.lua_State, ptr %38, i32 0, i32 7
  %40 = load ptr, ptr %39, align 8, !tbaa !32
  %41 = load i64, ptr %40, align 8, !tbaa !16
  %42 = ashr i64 %41, 47
  %43 = trunc i64 %42 to i32
  %44 = icmp eq i32 %43, -13
  br i1 %44, label %45, label %141

45:                                               ; preds = %37
  %46 = load ptr, ptr %2, align 8, !tbaa !4
  %47 = getelementptr inbounds nuw %struct.lua_State, ptr %46, i32 0, i32 7
  %48 = load ptr, ptr %47, align 8, !tbaa !32
  %49 = getelementptr inbounds nuw %struct.GCRef, ptr %48, i32 0, i32 0
  %50 = load i64, ptr %49, align 8, !tbaa !16
  %51 = and i64 %50, 140737488355327
  %52 = inttoptr i64 %51 to ptr
  %53 = getelementptr inbounds nuw %struct.GCudata, ptr %52, i32 0, i32 3
  %54 = load i8, ptr %53, align 2, !tbaa !16
  %55 = zext i8 %54 to i32
  %56 = icmp eq i32 %55, 3
  br i1 %56, label %57, label %141

57:                                               ; preds = %45, %29, %21
  call void @llvm.lifetime.start.p0(i64 8, ptr %6) #11
  call void @llvm.lifetime.start.p0(i64 4, ptr %7) #11
  %58 = load ptr, ptr %2, align 8, !tbaa !4
  %59 = getelementptr inbounds nuw %struct.lua_State, ptr %58, i32 0, i32 7
  %60 = load ptr, ptr %59, align 8, !tbaa !32
  %61 = load i64, ptr %60, align 8, !tbaa !16
  %62 = ashr i64 %61, 47
  %63 = trunc i64 %62 to i32
  %64 = icmp eq i32 %63, -13
  br i1 %64, label %65, label %109

65:                                               ; preds = %57
  %66 = load ptr, ptr %2, align 8, !tbaa !4
  %67 = getelementptr inbounds nuw %struct.lua_State, ptr %66, i32 0, i32 7
  %68 = load ptr, ptr %67, align 8, !tbaa !32
  %69 = getelementptr inbounds nuw %struct.GCRef, ptr %68, i32 0, i32 0
  %70 = load i64, ptr %69, align 8, !tbaa !16
  %71 = and i64 %70, 140737488355327
  %72 = inttoptr i64 %71 to ptr
  %73 = getelementptr inbounds nuw %struct.GCudata, ptr %72, i32 0, i32 3
  %74 = load i8, ptr %73, align 2, !tbaa !16
  %75 = zext i8 %74 to i32
  %76 = icmp eq i32 %75, 3
  br i1 %76, label %77, label %109

77:                                               ; preds = %65
  call void @llvm.lifetime.start.p0(i64 8, ptr %8) #11
  %78 = load ptr, ptr %2, align 8, !tbaa !4
  %79 = getelementptr inbounds nuw %struct.lua_State, ptr %78, i32 0, i32 7
  %80 = load ptr, ptr %79, align 8, !tbaa !32
  %81 = getelementptr inbounds nuw %struct.GCRef, ptr %80, i32 0, i32 0
  %82 = load i64, ptr %81, align 8, !tbaa !16
  %83 = and i64 %82, 140737488355327
  %84 = inttoptr i64 %83 to ptr
  %85 = getelementptr inbounds %struct.GCudata, ptr %84, i64 1
  store ptr %85, ptr %8, align 8, !tbaa !63
  %86 = load ptr, ptr %8, align 8, !tbaa !63
  %87 = getelementptr inbounds nuw %struct.SBufExt, ptr %86, i32 0, i32 5
  %88 = load ptr, ptr %87, align 8, !tbaa !65
  store ptr %88, ptr %6, align 8, !tbaa !25
  %89 = load ptr, ptr %8, align 8, !tbaa !63
  %90 = getelementptr inbounds nuw %struct.SBufExt, ptr %89, i32 0, i32 0
  %91 = load ptr, ptr %90, align 8, !tbaa !67
  %92 = load ptr, ptr %8, align 8, !tbaa !63
  %93 = getelementptr inbounds nuw %struct.SBufExt, ptr %92, i32 0, i32 5
  %94 = load ptr, ptr %93, align 8, !tbaa !65
  %95 = ptrtoint ptr %91 to i64
  %96 = ptrtoint ptr %94 to i64
  %97 = sub i64 %95, %96
  %98 = trunc i64 %97 to i32
  store i32 %98, ptr %7, align 4, !tbaa !29
  %99 = load ptr, ptr %3, align 8, !tbaa !30
  %100 = icmp ne ptr %99, null
  br i1 %100, label %108, label %101

101:                                              ; preds = %77
  %102 = load ptr, ptr %2, align 8, !tbaa !4
  %103 = getelementptr inbounds nuw %struct.lua_State, ptr %102, i32 0, i32 5
  %104 = getelementptr inbounds nuw %struct.MRef, ptr %103, i32 0, i32 0
  %105 = load i64, ptr %104, align 8, !tbaa !33
  %106 = inttoptr i64 %105 to ptr
  %107 = getelementptr inbounds nuw %struct.global_State, ptr %106, i32 0, i32 3
  store ptr %107, ptr %3, align 8, !tbaa !30
  br label %108

108:                                              ; preds = %101, %77
  call void @llvm.lifetime.end.p0(i64 8, ptr %8) #11
  br label %117

109:                                              ; preds = %65, %57
  call void @llvm.lifetime.start.p0(i64 8, ptr %9) #11
  %110 = load ptr, ptr %2, align 8, !tbaa !4
  %111 = call ptr @lj_lib_checkstr(ptr noundef %110, i32 noundef 1)
  store ptr %111, ptr %9, align 8, !tbaa !30
  %112 = load ptr, ptr %9, align 8, !tbaa !30
  %113 = getelementptr inbounds %struct.GCstr, ptr %112, i64 1
  store ptr %113, ptr %6, align 8, !tbaa !25
  %114 = load ptr, ptr %9, align 8, !tbaa !30
  %115 = getelementptr inbounds nuw %struct.GCstr, ptr %114, i32 0, i32 7
  %116 = load i32, ptr %115, align 4, !tbaa !68
  store i32 %116, ptr %7, align 4, !tbaa !29
  call void @llvm.lifetime.end.p0(i64 8, ptr %9) #11
  br label %117

117:                                              ; preds = %109, %108
  %118 = load ptr, ptr %2, align 8, !tbaa !4
  call void @lua_settop(ptr noundef %118, i32 noundef 4)
  %119 = load ptr, ptr %2, align 8, !tbaa !4
  %120 = load ptr, ptr %6, align 8, !tbaa !25
  %121 = load i32, ptr %7, align 4, !tbaa !29
  %122 = zext i32 %121 to i64
  %123 = load ptr, ptr %3, align 8, !tbaa !30
  %124 = icmp ne ptr %123, null
  br i1 %124, label %125, label %128

125:                                              ; preds = %117
  %126 = load ptr, ptr %3, align 8, !tbaa !30
  %127 = getelementptr inbounds %struct.GCstr, ptr %126, i64 1
  br label %130

128:                                              ; preds = %117
  %129 = load ptr, ptr %6, align 8, !tbaa !25
  br label %130

130:                                              ; preds = %128, %125
  %131 = phi ptr [ %127, %125 ], [ %129, %128 ]
  %132 = load ptr, ptr %4, align 8, !tbaa !30
  %133 = icmp ne ptr %132, null
  br i1 %133, label %134, label %137

134:                                              ; preds = %130
  %135 = load ptr, ptr %4, align 8, !tbaa !30
  %136 = getelementptr inbounds %struct.GCstr, ptr %135, i64 1
  br label %138

137:                                              ; preds = %130
  br label %138

138:                                              ; preds = %137, %134
  %139 = phi ptr [ %136, %134 ], [ null, %137 ]
  %140 = call i32 @luaL_loadbufferx(ptr noundef %119, ptr noundef %120, i64 noundef %122, ptr noundef %131, ptr noundef %139)
  store i32 %140, ptr %5, align 4, !tbaa !29
  call void @llvm.lifetime.end.p0(i64 4, ptr %7) #11
  call void @llvm.lifetime.end.p0(i64 8, ptr %6) #11
  br label %163

141:                                              ; preds = %45, %37, %1
  %142 = load ptr, ptr %2, align 8, !tbaa !4
  %143 = call ptr @lj_lib_checkfunc(ptr noundef %142, i32 noundef 1)
  %144 = load ptr, ptr %2, align 8, !tbaa !4
  call void @lua_settop(ptr noundef %144, i32 noundef 5)
  %145 = load ptr, ptr %2, align 8, !tbaa !4
  %146 = load ptr, ptr %3, align 8, !tbaa !30
  %147 = icmp ne ptr %146, null
  br i1 %147, label %148, label %151

148:                                              ; preds = %141
  %149 = load ptr, ptr %3, align 8, !tbaa !30
  %150 = getelementptr inbounds %struct.GCstr, ptr %149, i64 1
  br label %152

151:                                              ; preds = %141
  br label %152

152:                                              ; preds = %151, %148
  %153 = phi ptr [ %150, %148 ], [ @.str.7, %151 ]
  %154 = load ptr, ptr %4, align 8, !tbaa !30
  %155 = icmp ne ptr %154, null
  br i1 %155, label %156, label %159

156:                                              ; preds = %152
  %157 = load ptr, ptr %4, align 8, !tbaa !30
  %158 = getelementptr inbounds %struct.GCstr, ptr %157, i64 1
  br label %160

159:                                              ; preds = %152
  br label %160

160:                                              ; preds = %159, %156
  %161 = phi ptr [ %158, %156 ], [ null, %159 ]
  %162 = call i32 @lua_loadx(ptr noundef %145, ptr noundef @reader_func, ptr noundef null, ptr noundef %153, ptr noundef %161)
  store i32 %162, ptr %5, align 4, !tbaa !29
  br label %163

163:                                              ; preds = %160, %138
  %164 = load ptr, ptr %2, align 8, !tbaa !4
  %165 = load i32, ptr %5, align 4, !tbaa !29
  %166 = call i32 @load_aux(ptr noundef %164, i32 noundef %165, i32 noundef 4)
  call void @llvm.lifetime.end.p0(i64 4, ptr %5) #11
  call void @llvm.lifetime.end.p0(i64 8, ptr %4) #11
  call void @llvm.lifetime.end.p0(i64 8, ptr %3) #11
  ret i32 %166
}