; Function Attrs: nounwind uwtable
define internal range(i32 1, 3) i32 @lj_cf_load(ptr noundef %0) #2 {
  %2 = tail call ptr @lj_lib_optstr(ptr noundef %0, i32 noundef 2) #11
  %3 = tail call ptr @lj_lib_optstr(ptr noundef %0, i32 noundef 3) #11
  %4 = getelementptr inbounds nuw i8, ptr %0, i64 32
  %5 = load ptr, ptr %4, align 8, !tbaa !19
  %6 = getelementptr inbounds nuw i8, ptr %0, i64 40
  %7 = load ptr, ptr %6, align 8, !tbaa !4
  %8 = icmp ult ptr %5, %7
  br i1 %8, label %9, label %56

9:                                                ; preds = %1
  %10 = load i64, ptr %5, align 8, !tbaa !14
  %11 = ashr i64 %10, 47
  %12 = icmp eq i64 %11, -5
  %13 = icmp ult i64 %11, -13
  %or.cond = or i1 %12, %13
  br i1 %or.cond, label %22, label %14

14:                                               ; preds = %9
  %15 = icmp eq i64 %11, -13
  br i1 %15, label %16, label %56

16:                                               ; preds = %14
  %17 = and i64 %10, 140737488355327
  %18 = inttoptr i64 %17 to ptr
  %19 = getelementptr inbounds nuw i8, ptr %18, i64 10
  %20 = load i8, ptr %19, align 2, !tbaa !14
  %21 = icmp eq i8 %20, 3
  br i1 %21, label %22, label %56

22:                                               ; preds = %16, %9
  %.mask = and i64 %10, -140737488355328
  %23 = icmp eq i64 %.mask, -1829587348619264
  br i1 %23, label %24, label %44

24:                                               ; preds = %22
  %25 = and i64 %10, 140737488355327
  %26 = inttoptr i64 %25 to ptr
  %27 = getelementptr inbounds nuw i8, ptr %26, i64 10
  %28 = load i8, ptr %27, align 2, !tbaa !14
  %29 = icmp eq i8 %28, 3
  br i1 %29, label %30, label %44

30:                                               ; preds = %24
  %31 = getelementptr inbounds nuw i8, ptr %26, i64 48
  %32 = getelementptr inbounds nuw i8, ptr %26, i64 88
  %33 = load ptr, ptr %32, align 8, !tbaa !58
  %34 = load ptr, ptr %31, align 8, !tbaa !60
  %35 = ptrtoint ptr %34 to i64
  %36 = ptrtoint ptr %33 to i64
  %37 = sub i64 %35, %36
  %38 = trunc i64 %37 to i32
  %.not43 = icmp eq ptr %2, null
  br i1 %.not43, label %39, label %49

39:                                               ; preds = %30
  %40 = getelementptr inbounds nuw i8, ptr %0, i64 16
  %41 = load i64, ptr %40, align 8, !tbaa !20
  %42 = inttoptr i64 %41 to ptr
  %43 = getelementptr inbounds nuw i8, ptr %42, i64 120
  br label %49

44:                                               ; preds = %24, %22
  %45 = tail call ptr @lj_lib_checkstr(ptr noundef nonnull %0, i32 noundef 1) #11
  %46 = getelementptr inbounds nuw i8, ptr %45, i64 24
  %47 = getelementptr inbounds nuw i8, ptr %45, i64 20
  %48 = load i32, ptr %47, align 4, !tbaa !61
  br label %49

49:                                               ; preds = %30, %39, %44
  %.038 = phi ptr [ %46, %44 ], [ %33, %39 ], [ %33, %30 ]
  %.037 = phi i32 [ %48, %44 ], [ %38, %39 ], [ %38, %30 ]
  %.1 = phi ptr [ %2, %44 ], [ %43, %39 ], [ %2, %30 ]
  tail call void @lua_settop(ptr noundef nonnull %0, i32 noundef 4) #11
  %50 = zext i32 %.037 to i64
  %.not44 = icmp eq ptr %.1, null
  %51 = getelementptr inbounds nuw i8, ptr %.1, i64 24
  %52 = select i1 %.not44, ptr %.038, ptr %51
  %.not45 = icmp eq ptr %3, null
  %53 = getelementptr inbounds nuw i8, ptr %3, i64 24
  %54 = select i1 %.not45, ptr null, ptr %53
  %55 = tail call i32 @luaL_loadbufferx(ptr noundef nonnull %0, ptr noundef %.038, i64 noundef %50, ptr noundef %52, ptr noundef %54) #11
  br label %63

56:                                               ; preds = %16, %14, %1
  %57 = tail call ptr @lj_lib_checkfunc(ptr noundef nonnull %0, i32 noundef 1) #11
  tail call void @lua_settop(ptr noundef nonnull %0, i32 noundef 5) #11
  %.not = icmp eq ptr %2, null
  %58 = getelementptr inbounds nuw i8, ptr %2, i64 24
  %59 = select i1 %.not, ptr @.str.7, ptr %58
  %.not42 = icmp eq ptr %3, null
  %60 = getelementptr inbounds nuw i8, ptr %3, i64 24
  %61 = select i1 %.not42, ptr null, ptr %60
  %62 = tail call i32 @lua_loadx(ptr noundef nonnull %0, ptr noundef nonnull @reader_func, ptr noundef null, ptr noundef nonnull %59, ptr noundef %61) #11
  br label %63

63:                                               ; preds = %56, %49
  %.036 = phi i32 [ %55, %49 ], [ %62, %56 ]
  %64 = icmp eq i32 %.036, 0
  br i1 %64, label %65, label %92

65:                                               ; preds = %63
  %66 = load ptr, ptr %4, align 8, !tbaa !19
  %67 = getelementptr inbounds nuw i8, ptr %66, i64 24
  %68 = load i64, ptr %67, align 8, !tbaa !14
  %.mask.i = and i64 %68, -140737488355328
  %69 = icmp eq i64 %.mask.i, -1688849860263936
  br i1 %69, label %70, label %load_aux.exit

70:                                               ; preds = %65
  %71 = load ptr, ptr %6, align 8, !tbaa !4
  %72 = getelementptr inbounds i8, ptr %71, i64 -8
  %73 = load i64, ptr %72, align 8, !tbaa !14
  %.mask15.i = and i64 %73, -140737488355328
  %74 = icmp eq i64 %.mask15.i, -1266637395197952
  br i1 %74, label %75, label %load_aux.exit

75:                                               ; preds = %70
  %76 = and i64 %73, 140737488355327
  %77 = inttoptr i64 %76 to ptr
  %78 = and i64 %68, 140737488355327
  %79 = inttoptr i64 %78 to ptr
  %80 = getelementptr inbounds nuw i8, ptr %77, i64 16
  store i64 %78, ptr %80, align 8, !tbaa !14
  %81 = getelementptr inbounds nuw i8, ptr %79, i64 8
  %82 = load i8, ptr %81, align 8, !tbaa !14
  %83 = and i8 %82, 3
  %.not.i = icmp eq i8 %83, 0
  br i1 %.not.i, label %load_aux.exit, label %84

84:                                               ; preds = %75
  %85 = getelementptr inbounds nuw i8, ptr %77, i64 8
  %86 = load i8, ptr %85, align 8, !tbaa !14
  %87 = and i8 %86, 4
  %.not16.i = icmp eq i8 %87, 0
  br i1 %.not16.i, label %load_aux.exit, label %88

88:                                               ; preds = %84
  %89 = getelementptr inbounds nuw i8, ptr %0, i64 16
  %90 = load i64, ptr %89, align 8, !tbaa !20
  %91 = inttoptr i64 %90 to ptr
  tail call void @lj_gc_barrierf(ptr noundef %91, ptr noundef nonnull %77, ptr noundef nonnull %79) #11
  br label %load_aux.exit

92:                                               ; preds = %63
  %93 = load ptr, ptr %6, align 8, !tbaa !4
  %94 = getelementptr inbounds i8, ptr %93, i64 -16
  store i64 -1, ptr %94, align 8, !tbaa !14
  br label %load_aux.exit

load_aux.exit:                                    ; preds = %65, %70, %75, %84, %88, %92
  %.0.i = phi i32 [ 2, %92 ], [ 1, %75 ], [ 1, %84 ], [ 1, %88 ], [ 1, %70 ], [ 1, %65 ]
  ret i32 %.0.i
}